target datalayout = "e-m:e-p270:32:32-p271:32:32-p272:64:64-i64:64-i128:128-f80:128-n8:16:32:64-S128"
target triple = "x86_64-pc-linux-gnu"

%struct.AVFilterFormats = type { i32, ptr, i32, ptr }

; Function Attrs: cold nounwind optsize uwtable
define internal i32 @invert_formats(ptr noundef %0, ptr noundef %1) #0 {
  %3 = alloca i32, align 4
  %4 = alloca ptr, align 8
  %5 = alloca ptr, align 8
  %6 = alloca i32, align 4
  %7 = alloca i32, align 4
  %8 = alloca i32, align 4
  store ptr %0, ptr %4, align 8, !tbaa !45
  store ptr %1, ptr %5, align 8, !tbaa !47
  %9 = load ptr, ptr %5, align 8, !tbaa !47
  %10 = icmp ne ptr %9, null
  br i1 %10, label %12, label %11

11:                                               ; preds = %2
  store i32 -12, ptr %3, align 4
  br label %92

12:                                               ; preds = %2
  %13 = load ptr, ptr %4, align 8, !tbaa !45
  %14 = load ptr, ptr %13, align 8, !tbaa !47
  %15 = icmp ne ptr %14, null
  br i1 %15, label %17, label %16

16:                                               ; preds = %12
  call void @ff_formats_unref(ptr noundef %5)
  store i32 0, ptr %3, align 4
  br label %92

17:                                               ; preds = %12
  call void @llvm.lifetime.start.p0(i64 4, ptr %6) #7
  store i32 0, ptr %6, align 4, !tbaa !29
  br label %18

18:                                               ; preds = %85, %17
  %19 = load i32, ptr %6, align 4, !tbaa !29
  %20 = load ptr, ptr %5, align 8, !tbaa !47
  %21 = getelementptr inbounds nuw %struct.AVFilterFormats, ptr %20, i32 0, i32 0
  %22 = load i32, ptr %21, align 8, !tbaa !48
  %23 = icmp ult i32 %19, %22
  br i1 %23, label %25, label %24

24:                                               ; preds = %18
  store i32 2, ptr %7, align 4
  call void @llvm.lifetime.end.p0(i64 4, ptr %6) #7
  br label %88

25:                                               ; preds = %18
  call void @llvm.lifetime.start.p0(i64 4, ptr %8) #7
  store i32 0, ptr %8, align 4, !tbaa !29
  br label %26

26:                                               ; preds = %80, %25
  %27 = load i32, ptr %8, align 4, !tbaa !29
  %28 = load ptr, ptr %4, align 8, !tbaa !45
  %29 = load ptr, ptr %28, align 8, !tbaa !47
  %30 = getelementptr inbounds nuw %struct.AVFilterFormats, ptr %29, i32 0, i32 0
  %31 = load i32, ptr %30, align 8, !tbaa !48
  %32 = icmp ult i32 %27, %31
  br i1 %32, label %34, label %33

33:                                               ; preds = %26
  store i32 5, ptr %7, align 4
  br label %83

34:                                               ; preds = %26
  %35 = load ptr, ptr %5, align 8, !tbaa !47
  %36 = getelementptr inbounds nuw %struct.AVFilterFormats, ptr %35, i32 0, i32 1
  %37 = load ptr, ptr %36, align 8, !tbaa !53
  %38 = load i32, ptr %6, align 4, !tbaa !29
  %39 = sext i32 %38 to i64
  %40 = getelementptr inbounds i32, ptr %37, i64 %39
  %41 = load i32, ptr %40, align 4, !tbaa !29
  %42 = load ptr, ptr %4, align 8, !tbaa !45
  %43 = load ptr, ptr %42, align 8, !tbaa !47
  %44 = getelementptr inbounds nuw %struct.AVFilterFormats, ptr %43, i32 0, i32 1
  %45 = load ptr, ptr %44, align 8, !tbaa !53
  %46 = load i32, ptr %8, align 4, !tbaa !29
  %47 = sext i32 %46 to i64
  %48 = getelementptr inbounds i32, ptr %45, i64 %47
  %49 = load i32, ptr %48, align 4, !tbaa !29
  %50 = icmp eq i32 %41, %49
  br i1 %50, label %51, label %79

51:                                               ; preds = %34
  %52 = load ptr, ptr %5, align 8, !tbaa !47
  %53 = getelementptr inbounds nuw %struct.AVFilterFormats, ptr %52, i32 0, i32 1
  %54 = load ptr, ptr %53, align 8, !tbaa !53
  %55 = load i32, ptr %6, align 4, !tbaa !29
  %56 = sext i32 %55 to i64
  %57 = getelementptr inbounds i32, ptr %54, i64 %56
  %58 = load ptr, ptr %5, align 8, !tbaa !47
  %59 = getelementptr inbounds nuw %struct.AVFilterFormats, ptr %58, i32 0, i32 1
  %60 = load ptr, ptr %59, align 8, !tbaa !53
  %61 = load i32, ptr %6, align 4, !tbaa !29
  %62 = add nsw i32 %61, 1
  %63 = sext i32 %62 to i64
  %64 = getelementptr inbounds i32, ptr %60, i64 %63
  %65 = load ptr, ptr %5, align 8, !tbaa !47
  %66 = getelementptr inbounds nuw %struct.AVFilterFormats, ptr %65, i32 0, i32 0
  %67 = load i32, ptr %66, align 8, !tbaa !48
  %68 = load i32, ptr %6, align 4, !tbaa !29
  %69 = add nsw i32 %68, 1
  %70 = sub i32 %67, %69
  %71 = zext i32 %70 to i64
  %72 = mul i64 %71, 4
  call void @llvm.memmove.p0.p0.i64(ptr align 4 %57, ptr align 4 %64, i64 %72, i1 false)
  %73 = load ptr, ptr %5, align 8, !tbaa !47
  %74 = getelementptr inbounds nuw %struct.AVFilterFormats, ptr %73, i32 0, i32 0
  %75 = load i32, ptr %74, align 8, !tbaa !48
  %76 = add i32 %75, -1
  store i32 %76, ptr %74, align 8, !tbaa !48
  %77 = load i32, ptr %6, align 4, !tbaa !29
  %78 = add nsw i32 %77, -1
  store i32 %78, ptr %6, align 4, !tbaa !29
  store i32 5, ptr %7, align 4
  br label %83

79:                                               ; preds = %34
  br label %80

80:                                               ; preds = %79
  %81 = load i32, ptr %8, align 4, !tbaa !29
  %82 = add nsw i32 %81, 1
  store i32 %82, ptr %8, align 4, !tbaa !29
  br label %26, !llvm.loop !54

83:                                               ; preds = %51, %33
  call void @llvm.lifetime.end.p0(i64 4, ptr %8) #7
  br label %84

84:                                               ; preds = %83
  br label %85

85:                                               ; preds = %84
  %86 = load i32, ptr %6, align 4, !tbaa !29
  %87 = add nsw i32 %86, 1
  store i32 %87, ptr %6, align 4, !tbaa !29
  br label %18, !llvm.loop !55

88:                                               ; preds = %24
  %89 = load ptr, ptr %4, align 8, !tbaa !45
  call void @ff_formats_unref(ptr noundef %89)
  %90 = load ptr, ptr %5, align 8, !tbaa !47
  %91 = load ptr, ptr %4, align 8, !tbaa !45
  store ptr %90, ptr %91, align 8, !tbaa !47
  store i32 0, ptr %3, align 4
  br label %92

92:                                               ; preds = %88, %16, %11
  %93 = load i32, ptr %3, align 4
  ret i32 %93
}