; Function Attrs: cold nounwind optsize uwtable
define internal fastcc range(i32 -12, 1) i32 @invert_formats(ptr noundef %0, ptr noundef %1) unnamed_addr #0 {
  %3 = alloca ptr, align 8
  store ptr %1, ptr %3, align 8, !tbaa !37
  %.not = icmp eq ptr %1, null
  br i1 %.not, label %36, label %4

4:                                                ; preds = %2
  %5 = load ptr, ptr %0, align 8, !tbaa !37
  %.not17 = icmp eq ptr %5, null
  br i1 %.not17, label %8, label %.preheader18

.preheader18:                                     ; preds = %4
  %6 = load i32, ptr %1, align 8, !tbaa !38
  %.not25 = icmp eq i32 %6, 0
  br i1 %.not25, label %._crit_edge24, label %.preheader.lr.ph

.preheader.lr.ph:                                 ; preds = %.preheader18
  %7 = getelementptr inbounds nuw i8, ptr %1, i64 8
  br label %.preheader

8:                                                ; preds = %4
  call void @ff_formats_unref(ptr noundef nonnull %3) #8
  br label %36

.preheader:                                       ; preds = %.preheader.lr.ph, %33
  %9 = phi i32 [ %6, %.preheader.lr.ph ], [ %34, %33 ]
  %.01523 = phi i32 [ 0, %.preheader.lr.ph ], [ %.1, %33 ]
  %10 = load ptr, ptr %0, align 8, !tbaa !37
  %11 = load i32, ptr %10, align 8, !tbaa !38
  %.not26 = icmp eq i32 %11, 0
  br i1 %.not26, label %._crit_edge, label %.lr.ph

.lr.ph:                                           ; preds = %.preheader
  %12 = load ptr, ptr %7, align 8, !tbaa !43
  %13 = sext i32 %.01523 to i64
  %14 = getelementptr inbounds i32, ptr %12, i64 %13
  %15 = load i32, ptr %14, align 4, !tbaa !44
  %16 = getelementptr inbounds nuw i8, ptr %10, i64 8
  %17 = load ptr, ptr %16, align 8, !tbaa !43
  %wide.trip.count = zext i32 %11 to i64
  br label %20

._crit_edge24:                                    ; preds = %33, %.preheader18
  tail call void @ff_formats_unref(ptr noundef nonnull %0) #8
  store ptr %1, ptr %0, align 8, !tbaa !37
  br label %36

18:                                               ; preds = %20
  %indvars.iv.next = add nuw nsw i64 %indvars.iv, 1
  %exitcond.not = icmp eq i64 %indvars.iv.next, %wide.trip.count
  br i1 %exitcond.not, label %._crit_edge, label %20, !llvm.loop !45

._crit_edge:                                      ; preds = %18, %.preheader
  %19 = add nsw i32 %.01523, 1
  br label %33

20:                                               ; preds = %.lr.ph, %18
  %indvars.iv = phi i64 [ 0, %.lr.ph ], [ %indvars.iv.next, %18 ]
  %21 = getelementptr inbounds nuw i32, ptr %17, i64 %indvars.iv
  %22 = load i32, ptr %21, align 4, !tbaa !44
  %23 = icmp eq i32 %15, %22
  br i1 %23, label %24, label %18

24:                                               ; preds = %20
  %25 = add nsw i32 %.01523, 1
  %26 = sext i32 %25 to i64
  %27 = getelementptr inbounds i32, ptr %12, i64 %26
  %28 = sub i32 %9, %25
  %29 = zext i32 %28 to i64
  %30 = shl nuw nsw i64 %29, 2
  tail call void @llvm.memmove.p0.p0.i64(ptr nonnull align 4 %14, ptr align 4 %27, i64 %30, i1 false)
  %31 = load i32, ptr %1, align 8, !tbaa !38
  %32 = add i32 %31, -1
  store i32 %32, ptr %1, align 8, !tbaa !38
  br label %33

33:                                               ; preds = %24, %._crit_edge
  %34 = phi i32 [ %32, %24 ], [ %9, %._crit_edge ]
  %.1 = phi i32 [ %.01523, %24 ], [ %19, %._crit_edge ]
  %35 = icmp ult i32 %.1, %34
  br i1 %35, label %.preheader, label %._crit_edge24, !llvm.loop !46

36:                                               ; preds = %2, %._crit_edge24, %8
  %.016 = phi i32 [ 0, %._crit_edge24 ], [ 0, %8 ], [ -12, %2 ]
  ret i32 %.016
}